; Function Attrs: nounwind uwtable
define zeroext range(i8 0, 2) i8 @l_Lean_IR_HasIndex_visitVar(ptr noundef %0, ptr noundef %1) local_unnamed_addr #0 {
  %3 = ptrtoint ptr %0 to i64
  %4 = ptrtoint ptr %1 to i64
  %5 = and i64 %3, 1
  %6 = and i64 %5, %4
  %or.cond.not = icmp eq i64 %6, 0
  br i1 %or.cond.not, label %.critedge.i, label %7, !prof !22

7:                                                ; preds = %2
  %8 = icmp eq ptr %0, %1
  br label %lean_nat_eq.exit

.critedge.i:                                      ; preds = %2
  %9 = tail call zeroext i1 @lean_nat_big_eq(ptr noundef %0, ptr noundef %1) #3
  br label %lean_nat_eq.exit

lean_nat_eq.exit:                                 ; preds = %7, %.critedge.i
  %.0.i = phi i1 [ %8, %7 ], [ %9, %.critedge.i ]
  %10 = zext i1 %.0.i to i8
  ret i8 %10
}